target datalayout = "e-m:e-p270:32:32-p271:32:32-p272:64:64-i64:64-i128:128-f80:128-n8:16:32:64-S128"
target triple = "x86_64-pc-linux-gnu"

%struct._zval_struct = type { %union._zend_value, %union.anon.3, %union.anon.6 }
%union._zend_value = type { i64 }
%union.anon.3 = type { i32 }
%union.anon.6 = type { i32 }
%struct._zend_execute_data = type { ptr, ptr, ptr, ptr, %struct._zval_struct, ptr, ptr, ptr, ptr }
%struct._realpath_cache_bucket = type { i64, ptr, ptr, ptr, i64, i16, i16, i8 }

@.str.35 = private unnamed_addr constant [4 x i8] c"key\00", align 1
@.str.36 = private unnamed_addr constant [7 x i8] c"is_dir\00", align 1
@.str.37 = private unnamed_addr constant [9 x i8] c"realpath\00", align 1
@.str.38 = private unnamed_addr constant [8 x i8] c"expires\00", align 1

; Function Attrs: nounwind uwtable
define hidden void @zif_realpath_cache_get(ptr noundef %0, ptr noundef %1) #0 {
  %3 = alloca ptr, align 8
  %4 = alloca ptr, align 8
  %5 = alloca ptr, align 8
  %6 = alloca ptr, align 8
  %7 = alloca ptr, align 8
  %8 = alloca ptr, align 8
  %9 = alloca ptr, align 8
  %10 = alloca %struct._zval_struct, align 8
  %11 = alloca ptr, align 8
  %12 = alloca ptr, align 8
  store ptr %0, ptr %3, align 8
  store ptr %1, ptr %4, align 8
  %13 = call ptr @realpath_cache_get_buckets()
  store ptr %13, ptr %5, align 8
  %14 = load ptr, ptr %5, align 8
  %15 = call i64 @realpath_cache_max_buckets()
  %16 = getelementptr inbounds ptr, ptr %14, i64 %15
  store ptr %16, ptr %6, align 8
  br label %17

17:                                               ; preds = %2
  %18 = load ptr, ptr %3, align 8
  %19 = getelementptr inbounds %struct._zend_execute_data, ptr %18, i32 0, i32 4
  %20 = getelementptr inbounds %struct._zval_struct, ptr %19, i32 0, i32 2
  %21 = load i32, ptr %20, align 4
  %22 = icmp ne i32 %21, 0
  %23 = xor i1 %22, true
  %24 = xor i1 %23, true
  %25 = zext i1 %24 to i32
  %26 = sext i32 %25 to i64
  %27 = icmp ne i64 %26, 0
  br i1 %27, label %28, label %29

28:                                               ; preds = %17
  call void @zend_wrong_parameters_none_error()
  br label %105

29:                                               ; preds = %17
  br label %30

30:                                               ; preds = %29
  br label %31

31:                                               ; preds = %30
  %32 = call ptr @_zend_new_array_0()
  store ptr %32, ptr %7, align 8
  %33 = load ptr, ptr %4, align 8
  store ptr %33, ptr %8, align 8
  %34 = load ptr, ptr %7, align 8
  %35 = load ptr, ptr %8, align 8
  %36 = getelementptr inbounds %struct._zval_struct, ptr %35, i32 0, i32 0
  store ptr %34, ptr %36, align 8
  %37 = load ptr, ptr %8, align 8
  %38 = getelementptr inbounds %struct._zval_struct, ptr %37, i32 0, i32 1
  store i32 775, ptr %38, align 8
  br label %39

39:                                               ; preds = %31
  br label %40

40:                                               ; preds = %102, %39
  %41 = load ptr, ptr %5, align 8
  %42 = load ptr, ptr %6, align 8
  %43 = icmp ult ptr %41, %42
  br i1 %43, label %44, label %105

44:                                               ; preds = %40
  %45 = load ptr, ptr %5, align 8
  %46 = load ptr, ptr %45, align 8
  store ptr %46, ptr %9, align 8
  br label %47

47:                                               ; preds = %72, %44
  %48 = load ptr, ptr %9, align 8
  %49 = icmp ne ptr %48, null
  br i1 %49, label %50, label %102

50:                                               ; preds = %47
  br label %51

51:                                               ; preds = %50
  %52 = call ptr @_zend_new_array_0()
  store ptr %52, ptr %11, align 8
  store ptr %10, ptr %12, align 8
  %53 = load ptr, ptr %11, align 8
  %54 = load ptr, ptr %12, align 8
  %55 = getelementptr inbounds %struct._zval_struct, ptr %54, i32 0, i32 0
  store ptr %53, ptr %55, align 8
  %56 = load ptr, ptr %12, align 8
  %57 = getelementptr inbounds %struct._zval_struct, ptr %56, i32 0, i32 1
  store i32 775, ptr %57, align 8
  br label %58

58:                                               ; preds = %51
  %59 = load ptr, ptr %9, align 8
  %60 = getelementptr inbounds %struct._realpath_cache_bucket, ptr %59, i32 0, i32 0
  %61 = load i64, ptr %60, align 8
  %62 = icmp uge i64 9223372036854775807, %61
  br i1 %62, label %63, label %67

63:                                               ; preds = %58
  %64 = load ptr, ptr %9, align 8
  %65 = getelementptr inbounds %struct._realpath_cache_bucket, ptr %64, i32 0, i32 0
  %66 = load i64, ptr %65, align 8
  call void @add_assoc_long_ex(ptr noundef %10, ptr noundef @.str.35, i64 noundef 3, i64 noundef %66)
  br label %72

67:                                               ; preds = %58
  %68 = load ptr, ptr %9, align 8
  %69 = getelementptr inbounds %struct._realpath_cache_bucket, ptr %68, i32 0, i32 0
  %70 = load i64, ptr %69, align 8
  %71 = uitofp i64 %70 to double
  call void @add_assoc_double_ex(ptr noundef %10, ptr noundef @.str.35, i64 noundef 3, double noundef %71)
  br label %72

72:                                               ; preds = %67, %63
  %73 = load ptr, ptr %9, align 8
  %74 = getelementptr inbounds %struct._realpath_cache_bucket, ptr %73, i32 0, i32 7
  %75 = load i8, ptr %74, align 4
  %76 = and i8 %75, 1
  %77 = icmp ne i8 %76, 0
  call void @add_assoc_bool_ex(ptr noundef %10, ptr noundef @.str.36, i64 noundef 6, i1 noundef zeroext %77)
  %78 = load ptr, ptr %9, align 8
  %79 = getelementptr inbounds %struct._realpath_cache_bucket, ptr %78, i32 0, i32 2
  %80 = load ptr, ptr %79, align 8
  %81 = load ptr, ptr %9, align 8
  %82 = getelementptr inbounds %struct._realpath_cache_bucket, ptr %81, i32 0, i32 6
  %83 = load i16, ptr %82, align 2
  %84 = zext i16 %83 to i64
  call void @add_assoc_stringl_ex(ptr noundef %10, ptr noundef @.str.37, i64 noundef 8, ptr noundef %80, i64 noundef %84)
  %85 = load ptr, ptr %9, align 8
  %86 = getelementptr inbounds %struct._realpath_cache_bucket, ptr %85, i32 0, i32 4
  %87 = load i64, ptr %86, align 8
  call void @add_assoc_long_ex(ptr noundef %10, ptr noundef @.str.38, i64 noundef 7, i64 noundef %87)
  %88 = load ptr, ptr %4, align 8
  %89 = getelementptr inbounds %struct._zval_struct, ptr %88, i32 0, i32 0
  %90 = load ptr, ptr %89, align 8
  %91 = load ptr, ptr %9, align 8
  %92 = getelementptr inbounds %struct._realpath_cache_bucket, ptr %91, i32 0, i32 1
  %93 = load ptr, ptr %92, align 8
  %94 = load ptr, ptr %9, align 8
  %95 = getelementptr inbounds %struct._realpath_cache_bucket, ptr %94, i32 0, i32 5
  %96 = load i16, ptr %95, align 8
  %97 = zext i16 %96 to i64
  %98 = call ptr @zend_hash_str_update(ptr noundef %90, ptr noundef %93, i64 noundef %97, ptr noundef %10)
  %99 = load ptr, ptr %9, align 8
  %100 = getelementptr inbounds %struct._realpath_cache_bucket, ptr %99, i32 0, i32 3
  %101 = load ptr, ptr %100, align 8
  store ptr %101, ptr %9, align 8
  br label %47

102:                                              ; preds = %47
  %103 = load ptr, ptr %5, align 8
  %104 = getelementptr inbounds ptr, ptr %103, i32 1
  store ptr %104, ptr %5, align 8
  br label %40

105:                                              ; preds = %40, %28
  ret void
}