; Function Attrs: nounwind uwtable
define hidden void @zif_realpath_cache_get(ptr nocapture noundef readonly %0, ptr nocapture noundef %1) local_unnamed_addr #1 {
  %3 = alloca %struct._zval_struct, align 8
  %4 = tail call ptr @realpath_cache_get_buckets() #16
  %5 = tail call i64 @realpath_cache_max_buckets() #16
  %6 = getelementptr inbounds ptr, ptr %4, i64 %5
  %7 = getelementptr inbounds i8, ptr %0, i64 44
  %8 = load i32, ptr %7, align 4
  %.not = icmp eq i32 %8, 0
  br i1 %.not, label %10, label %9

9:                                                ; preds = %2
  tail call void @zend_wrong_parameters_none_error() #16
  br label %.loopexit

10:                                               ; preds = %2
  %11 = tail call ptr @_zend_new_array_0() #16
  store ptr %11, ptr %1, align 8
  %12 = getelementptr inbounds i8, ptr %1, i64 8
  store i32 775, ptr %12, align 8
  %13 = icmp sgt i64 %5, 0
  br i1 %13, label %.preheader.lr.ph, label %.loopexit

.preheader.lr.ph:                                 ; preds = %10
  %14 = getelementptr inbounds i8, ptr %3, i64 8
  br label %.preheader

.preheader:                                       ; preds = %.preheader.lr.ph, %._crit_edge
  %.031 = phi ptr [ %4, %.preheader.lr.ph ], [ %41, %._crit_edge ]
  %.02528 = load ptr, ptr %.031, align 8
  %.not2729 = icmp eq ptr %.02528, null
  br i1 %.not2729, label %._crit_edge, label %.lr.ph

.lr.ph:                                           ; preds = %.preheader, %21
  %.02530 = phi ptr [ %.025, %21 ], [ %.02528, %.preheader ]
  %15 = call ptr @_zend_new_array_0() #16
  store ptr %15, ptr %3, align 8
  store i32 775, ptr %14, align 8
  %16 = load i64, ptr %.02530, align 8
  %17 = icmp sgt i64 %16, -1
  br i1 %17, label %18, label %19

18:                                               ; preds = %.lr.ph
  call void @add_assoc_long_ex(ptr noundef nonnull %3, ptr noundef nonnull @.str.35, i64 noundef 3, i64 noundef %16) #16
  br label %21

19:                                               ; preds = %.lr.ph
  %20 = uitofp i64 %16 to double
  call void @add_assoc_double_ex(ptr noundef nonnull %3, ptr noundef nonnull @.str.35, i64 noundef 3, double noundef %20) #16
  br label %21

21:                                               ; preds = %19, %18
  %22 = getelementptr inbounds i8, ptr %.02530, i64 44
  %23 = load i8, ptr %22, align 4
  %24 = and i8 %23, 1
  %25 = icmp ne i8 %24, 0
  call void @add_assoc_bool_ex(ptr noundef nonnull %3, ptr noundef nonnull @.str.36, i64 noundef 6, i1 noundef zeroext %25) #16
  %26 = getelementptr inbounds i8, ptr %.02530, i64 16
  %27 = load ptr, ptr %26, align 8
  %28 = getelementptr inbounds i8, ptr %.02530, i64 42
  %29 = load i16, ptr %28, align 2
  %30 = zext i16 %29 to i64
  call void @add_assoc_stringl_ex(ptr noundef nonnull %3, ptr noundef nonnull @.str.37, i64 noundef 8, ptr noundef %27, i64 noundef %30) #16
  %31 = getelementptr inbounds i8, ptr %.02530, i64 32
  %32 = load i64, ptr %31, align 8
  call void @add_assoc_long_ex(ptr noundef nonnull %3, ptr noundef nonnull @.str.38, i64 noundef 7, i64 noundef %32) #16
  %33 = load ptr, ptr %1, align 8
  %34 = getelementptr inbounds i8, ptr %.02530, i64 8
  %35 = load ptr, ptr %34, align 8
  %36 = getelementptr inbounds i8, ptr %.02530, i64 40
  %37 = load i16, ptr %36, align 8
  %38 = zext i16 %37 to i64
  %39 = call ptr @zend_hash_str_update(ptr noundef %33, ptr noundef %35, i64 noundef %38, ptr noundef nonnull %3) #16
  %40 = getelementptr inbounds i8, ptr %.02530, i64 24
  %.025 = load ptr, ptr %40, align 8
  %.not27 = icmp eq ptr %.025, null
  br i1 %.not27, label %._crit_edge, label %.lr.ph

._crit_edge:                                      ; preds = %21, %.preheader
  %41 = getelementptr inbounds i8, ptr %.031, i64 8
  %42 = icmp ult ptr %41, %6
  br i1 %42, label %.preheader, label %.loopexit

.loopexit:                                        ; preds = %._crit_edge, %10, %9
  ret void
}